target datalayout = "e-m:e-p270:32:32-p271:32:32-p272:64:64-i64:64-i128:128-f80:128-n8:16:32:64-S128"
target triple = "x86_64-pc-linux-gnu"

%union.anon.3 = type { ptr }

; Function Attrs: nounwind uwtable
define i32 @H5LTget_dataset_info(i64 noundef %0, ptr noundef %1, ptr noundef %2, ptr noundef %3, ptr noundef %4) #0 {
  %6 = alloca i32, align 4
  %7 = alloca i64, align 8
  %8 = alloca ptr, align 8
  %9 = alloca ptr, align 8
  %10 = alloca ptr, align 8
  %11 = alloca ptr, align 8
  %12 = alloca i64, align 8
  %13 = alloca i64, align 8
  %14 = alloca i64, align 8
  %15 = alloca i32, align 4
  %16 = alloca i32, align 4
  %17 = alloca %union.anon.3, align 8
  %18 = alloca ptr, align 8
  store i64 %0, ptr %7, align 8, !tbaa !3
  store ptr %1, ptr %8, align 8, !tbaa !7
  store ptr %2, ptr %9, align 8, !tbaa !12
  store ptr %3, ptr %10, align 8, !tbaa !14
  store ptr %4, ptr %11, align 8, !tbaa !12
  call void @llvm.lifetime.start.p0(i64 8, ptr %12) #11
  store i64 -1, ptr %12, align 8, !tbaa !3
  call void @llvm.lifetime.start.p0(i64 8, ptr %13) #11
  store i64 -1, ptr %13, align 8, !tbaa !3
  call void @llvm.lifetime.start.p0(i64 8, ptr %14) #11
  store i64 -1, ptr %14, align 8, !tbaa !3
  %19 = load ptr, ptr %8, align 8, !tbaa !7
  %20 = icmp eq ptr %19, null
  br i1 %20, label %21, label %22

21:                                               ; preds = %5
  store i32 -1, ptr %6, align 4
  store i32 1, ptr %15, align 4
  br label %103

22:                                               ; preds = %5
  %23 = load i64, ptr %7, align 8, !tbaa !3
  %24 = load ptr, ptr %8, align 8, !tbaa !7
  %25 = call i64 @H5Dopen2(i64 noundef %23, ptr noundef %24, i64 noundef 0)
  store i64 %25, ptr %12, align 8, !tbaa !3
  %26 = icmp slt i64 %25, 0
  br i1 %26, label %27, label %28

27:                                               ; preds = %22
  store i32 -1, ptr %6, align 4
  store i32 1, ptr %15, align 4
  br label %103

28:                                               ; preds = %22
  %29 = load i64, ptr %12, align 8, !tbaa !3
  %30 = call i64 @H5Dget_type(i64 noundef %29)
  store i64 %30, ptr %13, align 8, !tbaa !3
  %31 = load ptr, ptr %10, align 8, !tbaa !14
  %32 = icmp ne ptr %31, null
  br i1 %32, label %33, label %37

33:                                               ; preds = %28
  %34 = load i64, ptr %13, align 8, !tbaa !3
  %35 = call i32 @H5Tget_class(i64 noundef %34)
  %36 = load ptr, ptr %10, align 8, !tbaa !14
  store i32 %35, ptr %36, align 4, !tbaa !10
  br label %37

37:                                               ; preds = %33, %28
  %38 = load ptr, ptr %11, align 8, !tbaa !12
  %39 = icmp ne ptr %38, null
  br i1 %39, label %40, label %44

40:                                               ; preds = %37
  %41 = load i64, ptr %13, align 8, !tbaa !3
  %42 = call i64 @H5Tget_size(i64 noundef %41)
  %43 = load ptr, ptr %11, align 8, !tbaa !12
  store i64 %42, ptr %43, align 8, !tbaa !3
  br label %44

44:                                               ; preds = %40, %37
  %45 = load ptr, ptr %9, align 8, !tbaa !12
  %46 = icmp ne ptr %45, null
  br i1 %46, label %47, label %64

47:                                               ; preds = %44
  %48 = load i64, ptr %12, align 8, !tbaa !3
  %49 = call i64 @H5Dget_space(i64 noundef %48)
  store i64 %49, ptr %14, align 8, !tbaa !3
  %50 = icmp slt i64 %49, 0
  br i1 %50, label %51, label %52

51:                                               ; preds = %47
  br label %75

52:                                               ; preds = %47
  %53 = load i64, ptr %14, align 8, !tbaa !3
  %54 = load ptr, ptr %9, align 8, !tbaa !12
  %55 = call i32 @H5Sget_simple_extent_dims(i64 noundef %53, ptr noundef %54, ptr noundef null)
  %56 = icmp slt i32 %55, 0
  br i1 %56, label %57, label %58

57:                                               ; preds = %52
  br label %75

58:                                               ; preds = %52
  %59 = load i64, ptr %14, align 8, !tbaa !3
  %60 = call i32 @H5Sclose(i64 noundef %59)
  %61 = icmp slt i32 %60, 0
  br i1 %61, label %62, label %63

62:                                               ; preds = %58
  br label %75

63:                                               ; preds = %58
  br label %64

64:                                               ; preds = %63, %44
  %65 = load i64, ptr %13, align 8, !tbaa !3
  %66 = call i32 @H5Tclose(i64 noundef %65)
  %67 = icmp ne i32 %66, 0
  br i1 %67, label %68, label %69

68:                                               ; preds = %64
  store i32 -1, ptr %6, align 4
  store i32 1, ptr %15, align 4
  br label %103

69:                                               ; preds = %64
  %70 = load i64, ptr %12, align 8, !tbaa !3
  %71 = call i32 @H5Dclose(i64 noundef %70)
  %72 = icmp ne i32 %71, 0
  br i1 %72, label %73, label %74

73:                                               ; preds = %69
  store i32 -1, ptr %6, align 4
  store i32 1, ptr %15, align 4
  br label %103

74:                                               ; preds = %69
  store i32 0, ptr %6, align 4
  store i32 1, ptr %15, align 4
  br label %103

75:                                               ; preds = %62, %57, %51
  call void @llvm.lifetime.start.p0(i64 4, ptr %16) #11
  call void @llvm.lifetime.start.p0(i64 8, ptr %17) #11
  call void @llvm.lifetime.start.p0(i64 8, ptr %18) #11
  %76 = call i32 @H5Eauto_is_v2(i64 noundef 0, ptr noundef %16)
  %77 = load i32, ptr %16, align 4, !tbaa !10
  %78 = icmp ne i32 %77, 0
  br i1 %78, label %79, label %82

79:                                               ; preds = %75
  %80 = call i32 @H5Eget_auto2(i64 noundef 0, ptr noundef %17, ptr noundef %18)
  %81 = call i32 @H5Eset_auto2(i64 noundef 0, ptr noundef null, ptr noundef null)
  br label %85

82:                                               ; preds = %75
  %83 = call i32 @H5Eget_auto1(ptr noundef %17, ptr noundef %18)
  %84 = call i32 @H5Eset_auto1(ptr noundef null, ptr noundef null)
  br label %85

85:                                               ; preds = %82, %79
  %86 = load i64, ptr %13, align 8, !tbaa !3
  %87 = call i32 @H5Tclose(i64 noundef %86)
  %88 = load i64, ptr %14, align 8, !tbaa !3
  %89 = call i32 @H5Sclose(i64 noundef %88)
  %90 = load i64, ptr %12, align 8, !tbaa !3
  %91 = call i32 @H5Dclose(i64 noundef %90)
  %92 = load i32, ptr %16, align 4, !tbaa !10
  %93 = icmp ne i32 %92, 0
  br i1 %93, label %94, label %98

94:                                               ; preds = %85
  %95 = load ptr, ptr %17, align 8, !tbaa !15
  %96 = load ptr, ptr %18, align 8, !tbaa !14
  %97 = call i32 @H5Eset_auto2(i64 noundef 0, ptr noundef %95, ptr noundef %96)
  br label %102

98:                                               ; preds = %85
  %99 = load ptr, ptr %17, align 8, !tbaa !15
  %100 = load ptr, ptr %18, align 8, !tbaa !14
  %101 = call i32 @H5Eset_auto1(ptr noundef %99, ptr noundef %100)
  br label %102

102:                                              ; preds = %98, %94
  call void @llvm.lifetime.end.p0(i64 8, ptr %18) #11
  call void @llvm.lifetime.end.p0(i64 8, ptr %17) #11
  call void @llvm.lifetime.end.p0(i64 4, ptr %16) #11
  store i32 -1, ptr %6, align 4
  store i32 1, ptr %15, align 4
  br label %103

103:                                              ; preds = %102, %74, %73, %68, %27, %21
  call void @llvm.lifetime.end.p0(i64 8, ptr %14) #11
  call void @llvm.lifetime.end.p0(i64 8, ptr %13) #11
  call void @llvm.lifetime.end.p0(i64 8, ptr %12) #11
  %104 = load i32, ptr %6, align 4
  ret i32 %104
}