; Function Attrs: nounwind uwtable
define range(i32 -1, 1) i32 @H5LTget_dataset_info(i64 noundef %0, ptr noundef %1, ptr noundef %2, ptr noundef writeonly captures(address_is_null) %3, ptr noundef writeonly captures(address_is_null) %4) local_unnamed_addr #0 {
  %6 = alloca i32, align 4
  %7 = alloca %union.anon.3, align 8
  %8 = alloca ptr, align 8
  %9 = icmp eq ptr %1, null
  br i1 %9, label %55, label %10

10:                                               ; preds = %5
  %11 = tail call i64 @H5Dopen2(i64 noundef %0, ptr noundef nonnull %1, i64 noundef 0) #20
  %12 = icmp slt i64 %11, 0
  br i1 %12, label %55, label %13

13:                                               ; preds = %10
  %14 = tail call i64 @H5Dget_type(i64 noundef %11) #20
  %.not = icmp eq ptr %3, null
  br i1 %.not, label %17, label %15

15:                                               ; preds = %13
  %16 = tail call i32 @H5Tget_class(i64 noundef %14) #20
  store i32 %16, ptr %3, align 4, !tbaa !3
  br label %17

17:                                               ; preds = %15, %13
  %.not26 = icmp eq ptr %4, null
  br i1 %.not26, label %20, label %18

18:                                               ; preds = %17
  %19 = tail call i64 @H5Tget_size(i64 noundef %14) #20
  store i64 %19, ptr %4, align 8, !tbaa !15
  br label %20

20:                                               ; preds = %18, %17
  %.not27 = icmp eq ptr %2, null
  br i1 %.not27, label %30, label %21

21:                                               ; preds = %20
  %22 = tail call i64 @H5Dget_space(i64 noundef %11) #20
  %23 = icmp slt i64 %22, 0
  br i1 %23, label %34, label %24

24:                                               ; preds = %21
  %25 = tail call i32 @H5Sget_simple_extent_dims(i64 noundef %22, ptr noundef nonnull %2, ptr noundef null) #20
  %26 = icmp slt i32 %25, 0
  br i1 %26, label %34, label %27

27:                                               ; preds = %24
  %28 = tail call i32 @H5Sclose(i64 noundef %22) #20
  %29 = icmp slt i32 %28, 0
  br i1 %29, label %34, label %30

30:                                               ; preds = %27, %20
  %31 = tail call i32 @H5Tclose(i64 noundef %14) #20
  %.not28 = icmp eq i32 %31, 0
  br i1 %.not28, label %32, label %55

32:                                               ; preds = %30
  %33 = tail call i32 @H5Dclose(i64 noundef %11) #20
  %.not29 = icmp ne i32 %33, 0
  %. = sext i1 %.not29 to i32
  br label %55

34:                                               ; preds = %27, %24, %21
  call void @llvm.lifetime.start.p0(i64 4, ptr nonnull %6) #20
  call void @llvm.lifetime.start.p0(i64 8, ptr nonnull %7) #20
  call void @llvm.lifetime.start.p0(i64 8, ptr nonnull %8) #20
  %35 = call i32 @H5Eauto_is_v2(i64 noundef 0, ptr noundef nonnull %6) #20
  %36 = load i32, ptr %6, align 4, !tbaa !3
  %.not30 = icmp eq i32 %36, 0
  br i1 %.not30, label %40, label %37

37:                                               ; preds = %34
  %38 = call i32 @H5Eget_auto2(i64 noundef 0, ptr noundef nonnull %7, ptr noundef nonnull %8) #20
  %39 = call i32 @H5Eset_auto2(i64 noundef 0, ptr noundef null, ptr noundef null) #20
  br label %43

40:                                               ; preds = %34
  %41 = call i32 @H5Eget_auto1(ptr noundef nonnull %7, ptr noundef nonnull %8) #20
  %42 = call i32 @H5Eset_auto1(ptr noundef null, ptr noundef null) #20
  br label %43

43:                                               ; preds = %40, %37
  %44 = call i32 @H5Tclose(i64 noundef %14) #20
  %45 = call i32 @H5Sclose(i64 noundef %22) #20
  %46 = call i32 @H5Dclose(i64 noundef %11) #20
  %47 = load i32, ptr %6, align 4, !tbaa !3
  %.not31 = icmp eq i32 %47, 0
  %48 = load ptr, ptr %7, align 8, !tbaa !7
  %49 = load ptr, ptr %8, align 8, !tbaa !8
  br i1 %.not31, label %52, label %50

50:                                               ; preds = %43
  %51 = call i32 @H5Eset_auto2(i64 noundef 0, ptr noundef %48, ptr noundef %49) #20
  br label %54

52:                                               ; preds = %43
  %53 = call i32 @H5Eset_auto1(ptr noundef %48, ptr noundef %49) #20
  br label %54

54:                                               ; preds = %52, %50
  call void @llvm.lifetime.end.p0(i64 8, ptr nonnull %8) #20
  call void @llvm.lifetime.end.p0(i64 8, ptr nonnull %7) #20
  call void @llvm.lifetime.end.p0(i64 4, ptr nonnull %6) #20
  br label %55

55:                                               ; preds = %32, %30, %10, %5, %54
  %.0 = phi i32 [ -1, %54 ], [ -1, %5 ], [ -1, %10 ], [ -1, %30 ], [ %., %32 ]
  ret i32 %.0
}